target datalayout = "e-m:e-p270:32:32-p271:32:32-p272:64:64-i64:64-i128:128-f80:128-n8:16:32:64-S128"
target triple = "x86_64-pc-linux-gnu"

%struct.Abc_BddMan_ = type { i32, i32, i32, ptr, ptr, ptr, ptr, ptr, ptr, i32, i32, i32, i32, i64 }

@.str.8 = private unnamed_addr constant [51 x i8] c"Aborting because the number of nodes exceeded %d.\0A\00", align 1
@stdout = external global ptr, align 8

; Function Attrs: inlinehint nounwind uwtable
define internal i32 @Abc_Var2Lit(i32 noundef %0, i32 noundef %1) #3 {
  %3 = alloca i32, align 4
  %4 = alloca i32, align 4
  store i32 %0, ptr %3, align 4, !tbaa !3
  store i32 %1, ptr %4, align 4, !tbaa !3
  %5 = load i32, ptr %3, align 4, !tbaa !3
  %6 = load i32, ptr %3, align 4, !tbaa !3
  %7 = add nsw i32 %5, %6
  %8 = load i32, ptr %4, align 4, !tbaa !3
  %9 = add nsw i32 %7, %8
  ret i32 %9
}

; Function Attrs: inlinehint nounwind uwtable
define internal i32 @Abc_BddHash(i32 noundef %0, i32 noundef %1, i32 noundef %2) #3 {
  %4 = alloca i32, align 4
  %5 = alloca i32, align 4
  %6 = alloca i32, align 4
  store i32 %0, ptr %4, align 4, !tbaa !3
  store i32 %1, ptr %5, align 4, !tbaa !3
  store i32 %2, ptr %6, align 4, !tbaa !3
  %7 = load i32, ptr %4, align 4, !tbaa !3
  %8 = mul nsw i32 12582917, %7
  %9 = load i32, ptr %5, align 4, !tbaa !3
  %10 = mul nsw i32 4256249, %9
  %11 = add nsw i32 %8, %10
  %12 = load i32, ptr %6, align 4, !tbaa !3
  %13 = mul nsw i32 741457, %12
  %14 = add nsw i32 %11, %13
  ret i32 %14
}

; Function Attrs: inlinehint nounwind uwtable
define internal i32 @Abc_LitNot(i32 noundef %0) #3 {
  %2 = alloca i32, align 4
  store i32 %0, ptr %2, align 4, !tbaa !3
  %3 = load i32, ptr %2, align 4, !tbaa !3
  %4 = xor i32 %3, 1
  ret i32 %4
}

; Function Attrs: inlinehint nounwind uwtable
define internal i32 @Abc_BddUniqueCreateInt(ptr noundef %0, i32 noundef %1, i32 noundef %2, i32 noundef %3) #3 {
  %5 = alloca i32, align 4
  %6 = alloca ptr, align 8
  %7 = alloca i32, align 4
  %8 = alloca i32, align 4
  %9 = alloca i32, align 4
  %10 = alloca ptr, align 8
  %11 = alloca i32, align 4
  store ptr %0, ptr %6, align 8, !tbaa !7
  store i32 %1, ptr %7, align 4, !tbaa !3
  store i32 %2, ptr %8, align 4, !tbaa !3
  store i32 %3, ptr %9, align 4, !tbaa !3
  call void @llvm.lifetime.start.p0(i64 8, ptr %10) #9
  %12 = load ptr, ptr %6, align 8, !tbaa !7
  %13 = getelementptr inbounds nuw %struct.Abc_BddMan_, ptr %12, i32 0, i32 3
  %14 = load ptr, ptr %13, align 8, !tbaa !18
  %15 = load i32, ptr %7, align 4, !tbaa !3
  %16 = load i32, ptr %8, align 4, !tbaa !3
  %17 = load i32, ptr %9, align 4, !tbaa !3
  %18 = call i32 @Abc_BddHash(i32 noundef %15, i32 noundef %16, i32 noundef %17)
  %19 = load ptr, ptr %6, align 8, !tbaa !7
  %20 = getelementptr inbounds nuw %struct.Abc_BddMan_, ptr %19, i32 0, i32 9
  %21 = load i32, ptr %20, align 8, !tbaa !16
  %22 = and i32 %18, %21
  %23 = zext i32 %22 to i64
  %24 = getelementptr inbounds nuw i32, ptr %14, i64 %23
  store ptr %24, ptr %10, align 8, !tbaa !32
  br label %25

25:                                               ; preds = %75, %4
  %26 = load ptr, ptr %10, align 8, !tbaa !32
  %27 = load i32, ptr %26, align 4, !tbaa !3
  %28 = icmp ne i32 %27, 0
  br i1 %28, label %29, label %83

29:                                               ; preds = %25
  %30 = load ptr, ptr %6, align 8, !tbaa !7
  %31 = getelementptr inbounds nuw %struct.Abc_BddMan_, ptr %30, i32 0, i32 7
  %32 = load ptr, ptr %31, align 8, !tbaa !23
  %33 = load ptr, ptr %10, align 8, !tbaa !32
  %34 = load i32, ptr %33, align 4, !tbaa !3
  %35 = sext i32 %34 to i64
  %36 = getelementptr inbounds i8, ptr %32, i64 %35
  %37 = load i8, ptr %36, align 1, !tbaa !24
  %38 = zext i8 %37 to i32
  %39 = load i32, ptr %7, align 4, !tbaa !3
  %40 = icmp eq i32 %38, %39
  br i1 %40, label %41, label %74

41:                                               ; preds = %29
  %42 = load ptr, ptr %6, align 8, !tbaa !7
  %43 = getelementptr inbounds nuw %struct.Abc_BddMan_, ptr %42, i32 0, i32 6
  %44 = load ptr, ptr %43, align 8, !tbaa !21
  %45 = load ptr, ptr %10, align 8, !tbaa !32
  %46 = load i32, ptr %45, align 4, !tbaa !3
  %47 = load ptr, ptr %10, align 8, !tbaa !32
  %48 = load i32, ptr %47, align 4, !tbaa !3
  %49 = add nsw i32 %46, %48
  %50 = sext i32 %49 to i64
  %51 = getelementptr inbounds i32, ptr %44, i64 %50
  %52 = load i32, ptr %51, align 4, !tbaa !3
  %53 = load i32, ptr %8, align 4, !tbaa !3
  %54 = icmp eq i32 %52, %53
  br i1 %54, label %55, label %74

55:                                               ; preds = %41
  %56 = load ptr, ptr %6, align 8, !tbaa !7
  %57 = getelementptr inbounds nuw %struct.Abc_BddMan_, ptr %56, i32 0, i32 6
  %58 = load ptr, ptr %57, align 8, !tbaa !21
  %59 = load ptr, ptr %10, align 8, !tbaa !32
  %60 = load i32, ptr %59, align 4, !tbaa !3
  %61 = load ptr, ptr %10, align 8, !tbaa !32
  %62 = load i32, ptr %61, align 4, !tbaa !3
  %63 = add nsw i32 %60, %62
  %64 = add nsw i32 %63, 1
  %65 = sext i32 %64 to i64
  %66 = getelementptr inbounds i32, ptr %58, i64 %65
  %67 = load i32, ptr %66, align 4, !tbaa !3
  %68 = load i32, ptr %9, align 4, !tbaa !3
  %69 = icmp eq i32 %67, %68
  br i1 %69, label %70, label %74

70:                                               ; preds = %55
  %71 = load ptr, ptr %10, align 8, !tbaa !32
  %72 = load i32, ptr %71, align 4, !tbaa !3
  %73 = call i32 @Abc_Var2Lit(i32 noundef %72, i32 noundef 0)
  store i32 %73, ptr %5, align 4
  store i32 1, ptr %11, align 4
  br label %139

74:                                               ; preds = %55, %41, %29
  br label %75

75:                                               ; preds = %74
  %76 = load ptr, ptr %6, align 8, !tbaa !7
  %77 = getelementptr inbounds nuw %struct.Abc_BddMan_, ptr %76, i32 0, i32 4
  %78 = load ptr, ptr %77, align 8, !tbaa !19
  %79 = load ptr, ptr %10, align 8, !tbaa !32
  %80 = load i32, ptr %79, align 4, !tbaa !3
  %81 = sext i32 %80 to i64
  %82 = getelementptr inbounds i32, ptr %78, i64 %81
  store ptr %82, ptr %10, align 8, !tbaa !32
  br label %25, !llvm.loop !70

83:                                               ; preds = %25
  %84 = load ptr, ptr %6, align 8, !tbaa !7
  %85 = getelementptr inbounds nuw %struct.Abc_BddMan_, ptr %84, i32 0, i32 1
  %86 = load i32, ptr %85, align 4, !tbaa !25
  %87 = load ptr, ptr %6, align 8, !tbaa !7
  %88 = getelementptr inbounds nuw %struct.Abc_BddMan_, ptr %87, i32 0, i32 2
  %89 = load i32, ptr %88, align 8, !tbaa !15
  %90 = icmp eq i32 %86, %89
  br i1 %90, label %91, label %98

91:                                               ; preds = %83
  %92 = load ptr, ptr %6, align 8, !tbaa !7
  %93 = getelementptr inbounds nuw %struct.Abc_BddMan_, ptr %92, i32 0, i32 2
  %94 = load i32, ptr %93, align 8, !tbaa !15
  %95 = call i32 (ptr, ...) @printf(ptr noundef @.str.8, i32 noundef %94)
  %96 = load ptr, ptr @stdout, align 8, !tbaa !71
  %97 = call i32 @fflush(ptr noundef %96)
  br label %98

98:                                               ; preds = %91, %83
  %99 = load ptr, ptr %6, align 8, !tbaa !7
  %100 = getelementptr inbounds nuw %struct.Abc_BddMan_, ptr %99, i32 0, i32 1
  %101 = load i32, ptr %100, align 4, !tbaa !25
  %102 = add nsw i32 %101, 1
  store i32 %102, ptr %100, align 4, !tbaa !25
  %103 = load ptr, ptr %10, align 8, !tbaa !32
  store i32 %101, ptr %103, align 4, !tbaa !3
  %104 = load i32, ptr %7, align 4, !tbaa !3
  %105 = trunc i32 %104 to i8
  %106 = load ptr, ptr %6, align 8, !tbaa !7
  %107 = getelementptr inbounds nuw %struct.Abc_BddMan_, ptr %106, i32 0, i32 7
  %108 = load ptr, ptr %107, align 8, !tbaa !23
  %109 = load ptr, ptr %10, align 8, !tbaa !32
  %110 = load i32, ptr %109, align 4, !tbaa !3
  %111 = sext i32 %110 to i64
  %112 = getelementptr inbounds i8, ptr %108, i64 %111
  store i8 %105, ptr %112, align 1, !tbaa !24
  %113 = load i32, ptr %8, align 4, !tbaa !3
  %114 = load ptr, ptr %6, align 8, !tbaa !7
  %115 = getelementptr inbounds nuw %struct.Abc_BddMan_, ptr %114, i32 0, i32 6
  %116 = load ptr, ptr %115, align 8, !tbaa !21
  %117 = load ptr, ptr %10, align 8, !tbaa !32
  %118 = load i32, ptr %117, align 4, !tbaa !3
  %119 = load ptr, ptr %10, align 8, !tbaa !32
  %120 = load i32, ptr %119, align 4, !tbaa !3
  %121 = add nsw i32 %118, %120
  %122 = sext i32 %121 to i64
  %123 = getelementptr inbounds i32, ptr %116, i64 %122
  store i32 %113, ptr %123, align 4, !tbaa !3
  %124 = load i32, ptr %9, align 4, !tbaa !3
  %125 = load ptr, ptr %6, align 8, !tbaa !7
  %126 = getelementptr inbounds nuw %struct.Abc_BddMan_, ptr %125, i32 0, i32 6
  %127 = load ptr, ptr %126, align 8, !tbaa !21
  %128 = load ptr, ptr %10, align 8, !tbaa !32
  %129 = load i32, ptr %128, align 4, !tbaa !3
  %130 = load ptr, ptr %10, align 8, !tbaa !32
  %131 = load i32, ptr %130, align 4, !tbaa !3
  %132 = add nsw i32 %129, %131
  %133 = add nsw i32 %132, 1
  %134 = sext i32 %133 to i64
  %135 = getelementptr inbounds i32, ptr %127, i64 %134
  store i32 %124, ptr %135, align 4, !tbaa !3
  %136 = load ptr, ptr %10, align 8, !tbaa !32
  %137 = load i32, ptr %136, align 4, !tbaa !3
  %138 = call i32 @Abc_Var2Lit(i32 noundef %137, i32 noundef 0)
  store i32 %138, ptr %5, align 4
  store i32 1, ptr %11, align 4
  br label %139

139:                                              ; preds = %98, %70
  call void @llvm.lifetime.end.p0(i64 8, ptr %10) #9
  %140 = load i32, ptr %5, align 4
  ret i32 %140
}

; Function Attrs: inlinehint nounwind uwtable
define internal i32 @Abc_LitIsCompl(i32 noundef %0) #3 {
  %2 = alloca i32, align 4
  store i32 %0, ptr %2, align 4, !tbaa !3
  %3 = load i32, ptr %2, align 4, !tbaa !3
  %4 = and i32 %3, 1
  ret i32 %4
}

; Function Attrs: inlinehint nounwind uwtable
define internal i32 @Abc_BddUniqueCreate(ptr noundef %0, i32 noundef %1, i32 noundef %2, i32 noundef %3) #3 {
  %5 = alloca i32, align 4
  %6 = alloca ptr, align 8
  %7 = alloca i32, align 4
  %8 = alloca i32, align 4
  %9 = alloca i32, align 4
  store ptr %0, ptr %6, align 8, !tbaa !7
  store i32 %1, ptr %7, align 4, !tbaa !3
  store i32 %2, ptr %8, align 4, !tbaa !3
  store i32 %3, ptr %9, align 4, !tbaa !3
  %10 = load i32, ptr %8, align 4, !tbaa !3
  %11 = load i32, ptr %9, align 4, !tbaa !3
  %12 = icmp eq i32 %10, %11
  br i1 %12, label %13, label %15

13:                                               ; preds = %4
  %14 = load i32, ptr %9, align 4, !tbaa !3
  store i32 %14, ptr %5, align 4
  br label %34

15:                                               ; preds = %4
  %16 = load i32, ptr %9, align 4, !tbaa !3
  %17 = call i32 @Abc_LitIsCompl(i32 noundef %16)
  %18 = icmp ne i32 %17, 0
  br i1 %18, label %25, label %19

19:                                               ; preds = %15
  %20 = load ptr, ptr %6, align 8, !tbaa !7
  %21 = load i32, ptr %7, align 4, !tbaa !3
  %22 = load i32, ptr %8, align 4, !tbaa !3
  %23 = load i32, ptr %9, align 4, !tbaa !3
  %24 = call i32 @Abc_BddUniqueCreateInt(ptr noundef %20, i32 noundef %21, i32 noundef %22, i32 noundef %23)
  store i32 %24, ptr %5, align 4
  br label %34

25:                                               ; preds = %15
  %26 = load ptr, ptr %6, align 8, !tbaa !7
  %27 = load i32, ptr %7, align 4, !tbaa !3
  %28 = load i32, ptr %8, align 4, !tbaa !3
  %29 = call i32 @Abc_LitNot(i32 noundef %28)
  %30 = load i32, ptr %9, align 4, !tbaa !3
  %31 = call i32 @Abc_LitNot(i32 noundef %30)
  %32 = call i32 @Abc_BddUniqueCreateInt(ptr noundef %26, i32 noundef %27, i32 noundef %29, i32 noundef %31)
  %33 = call i32 @Abc_LitNot(i32 noundef %32)
  store i32 %33, ptr %5, align 4
  br label %34

34:                                               ; preds = %25, %19, %13
  %35 = load i32, ptr %5, align 4
  ret i32 %35
}

; Function Attrs: inlinehint nounwind uwtable
define internal i32 @Abc_Base2Log(i32 noundef %0) #3 {
  %2 = alloca i32, align 4
  %3 = alloca i32, align 4
  %4 = alloca i32, align 4
  %5 = alloca i32, align 4
  store i32 %0, ptr %3, align 4, !tbaa !3
  call void @llvm.lifetime.start.p0(i64 4, ptr %4) #9
  %6 = load i32, ptr %3, align 4, !tbaa !3
  %7 = icmp ult i32 %6, 2
  br i1 %7, label %8, label %10

8:                                                ; preds = %1
  %9 = load i32, ptr %3, align 4, !tbaa !3
  store i32 %9, ptr %2, align 4
  store i32 1, ptr %5, align 4
  br label %24

10:                                               ; preds = %1
  store i32 0, ptr %4, align 4, !tbaa !3
  %11 = load i32, ptr %3, align 4, !tbaa !3
  %12 = add i32 %11, -1
  store i32 %12, ptr %3, align 4, !tbaa !3
  br label %13

13:                                               ; preds = %17, %10
  %14 = load i32, ptr %3, align 4, !tbaa !3
  %15 = icmp ne i32 %14, 0
  br i1 %15, label %16, label %22

16:                                               ; preds = %13
  br label %17

17:                                               ; preds = %16
  %18 = load i32, ptr %3, align 4, !tbaa !3
  %19 = lshr i32 %18, 1
  store i32 %19, ptr %3, align 4, !tbaa !3
  %20 = load i32, ptr %4, align 4, !tbaa !3
  %21 = add nsw i32 %20, 1
  store i32 %21, ptr %4, align 4, !tbaa !3
  br label %13, !llvm.loop !29

22:                                               ; preds = %13
  %23 = load i32, ptr %4, align 4, !tbaa !3
  store i32 %23, ptr %2, align 4
  store i32 1, ptr %5, align 4
  br label %24

24:                                               ; preds = %22, %8
  call void @llvm.lifetime.end.p0(i64 4, ptr %4) #9
  %25 = load i32, ptr %2, align 4
  ret i32 %25
}

; Function Attrs: nounwind uwtable
define ptr @Abc_BddManAlloc(i32 noundef %0, i32 noundef %1) #0 {
  %3 = alloca i32, align 4
  %4 = alloca i32, align 4
  %5 = alloca ptr, align 8
  %6 = alloca i32, align 4
  store i32 %0, ptr %3, align 4, !tbaa !3
  store i32 %1, ptr %4, align 4, !tbaa !3
  call void @llvm.lifetime.start.p0(i64 8, ptr %5) #9
  call void @llvm.lifetime.start.p0(i64 4, ptr %6) #9
  %7 = call noalias ptr @calloc(i64 noundef 1, i64 noundef 88) #10
  store ptr %7, ptr %5, align 8, !tbaa !7
  %8 = load i32, ptr %3, align 4, !tbaa !3
  %9 = load ptr, ptr %5, align 8, !tbaa !7
  %10 = getelementptr inbounds nuw %struct.Abc_BddMan_, ptr %9, i32 0, i32 0
  store i32 %8, ptr %10, align 8, !tbaa !10
  %11 = load i32, ptr %4, align 4, !tbaa !3
  %12 = load ptr, ptr %5, align 8, !tbaa !7
  %13 = getelementptr inbounds nuw %struct.Abc_BddMan_, ptr %12, i32 0, i32 2
  store i32 %11, ptr %13, align 8, !tbaa !15
  %14 = load i32, ptr %4, align 4, !tbaa !3
  %15 = call i32 @Abc_Base2Log(i32 noundef %14)
  %16 = shl i32 1, %15
  %17 = sub nsw i32 %16, 1
  %18 = load ptr, ptr %5, align 8, !tbaa !7
  %19 = getelementptr inbounds nuw %struct.Abc_BddMan_, ptr %18, i32 0, i32 9
  store i32 %17, ptr %19, align 8, !tbaa !16
  %20 = load i32, ptr %4, align 4, !tbaa !3
  %21 = call i32 @Abc_Base2Log(i32 noundef %20)
  %22 = shl i32 1, %21
  %23 = sub nsw i32 %22, 1
  %24 = load ptr, ptr %5, align 8, !tbaa !7
  %25 = getelementptr inbounds nuw %struct.Abc_BddMan_, ptr %24, i32 0, i32 10
  store i32 %23, ptr %25, align 4, !tbaa !17
  %26 = load ptr, ptr %5, align 8, !tbaa !7
  %27 = getelementptr inbounds nuw %struct.Abc_BddMan_, ptr %26, i32 0, i32 9
  %28 = load i32, ptr %27, align 8, !tbaa !16
  %29 = add i32 %28, 1
  %30 = zext i32 %29 to i64
  %31 = call noalias ptr @calloc(i64 noundef %30, i64 noundef 4) #10
  %32 = load ptr, ptr %5, align 8, !tbaa !7
  %33 = getelementptr inbounds nuw %struct.Abc_BddMan_, ptr %32, i32 0, i32 3
  store ptr %31, ptr %33, align 8, !tbaa !18
  %34 = load ptr, ptr %5, align 8, !tbaa !7
  %35 = getelementptr inbounds nuw %struct.Abc_BddMan_, ptr %34, i32 0, i32 2
  %36 = load i32, ptr %35, align 8, !tbaa !15
  %37 = sext i32 %36 to i64
  %38 = call noalias ptr @calloc(i64 noundef %37, i64 noundef 4) #10
  %39 = load ptr, ptr %5, align 8, !tbaa !7
  %40 = getelementptr inbounds nuw %struct.Abc_BddMan_, ptr %39, i32 0, i32 4
  store ptr %38, ptr %40, align 8, !tbaa !19
  %41 = load ptr, ptr %5, align 8, !tbaa !7
  %42 = getelementptr inbounds nuw %struct.Abc_BddMan_, ptr %41, i32 0, i32 10
  %43 = load i32, ptr %42, align 4, !tbaa !17
  %44 = add i32 %43, 1
  %45 = mul i32 3, %44
  %46 = zext i32 %45 to i64
  %47 = call noalias ptr @calloc(i64 noundef %46, i64 noundef 4) #10
  %48 = load ptr, ptr %5, align 8, !tbaa !7
  %49 = getelementptr inbounds nuw %struct.Abc_BddMan_, ptr %48, i32 0, i32 5
  store ptr %47, ptr %49, align 8, !tbaa !20
  %50 = load ptr, ptr %5, align 8, !tbaa !7
  %51 = getelementptr inbounds nuw %struct.Abc_BddMan_, ptr %50, i32 0, i32 2
  %52 = load i32, ptr %51, align 8, !tbaa !15
  %53 = mul nsw i32 2, %52
  %54 = sext i32 %53 to i64
  %55 = call noalias ptr @calloc(i64 noundef %54, i64 noundef 4) #10
  %56 = load ptr, ptr %5, align 8, !tbaa !7
  %57 = getelementptr inbounds nuw %struct.Abc_BddMan_, ptr %56, i32 0, i32 6
  store ptr %55, ptr %57, align 8, !tbaa !21
  %58 = load ptr, ptr %5, align 8, !tbaa !7
  %59 = getelementptr inbounds nuw %struct.Abc_BddMan_, ptr %58, i32 0, i32 2
  %60 = load i32, ptr %59, align 8, !tbaa !15
  %61 = sext i32 %60 to i64
  %62 = call noalias ptr @calloc(i64 noundef %61, i64 noundef 1) #10
  %63 = load ptr, ptr %5, align 8, !tbaa !7
  %64 = getelementptr inbounds nuw %struct.Abc_BddMan_, ptr %63, i32 0, i32 8
  store ptr %62, ptr %64, align 8, !tbaa !22
  %65 = load ptr, ptr %5, align 8, !tbaa !7
  %66 = getelementptr inbounds nuw %struct.Abc_BddMan_, ptr %65, i32 0, i32 2
  %67 = load i32, ptr %66, align 8, !tbaa !15
  %68 = sext i32 %67 to i64
  %69 = call noalias ptr @calloc(i64 noundef %68, i64 noundef 1) #10
  %70 = load ptr, ptr %5, align 8, !tbaa !7
  %71 = getelementptr inbounds nuw %struct.Abc_BddMan_, ptr %70, i32 0, i32 7
  store ptr %69, ptr %71, align 8, !tbaa !23
  %72 = load ptr, ptr %5, align 8, !tbaa !7
  %73 = getelementptr inbounds nuw %struct.Abc_BddMan_, ptr %72, i32 0, i32 7
  %74 = load ptr, ptr %73, align 8, !tbaa !23
  %75 = getelementptr inbounds i8, ptr %74, i64 0
  store i8 -1, ptr %75, align 1, !tbaa !24
  %76 = load ptr, ptr %5, align 8, !tbaa !7
  %77 = getelementptr inbounds nuw %struct.Abc_BddMan_, ptr %76, i32 0, i32 1
  store i32 1, ptr %77, align 4, !tbaa !25
  store i32 0, ptr %6, align 4, !tbaa !3
  br label %78

78:                                               ; preds = %86, %2
  %79 = load i32, ptr %6, align 4, !tbaa !3
  %80 = load i32, ptr %3, align 4, !tbaa !3
  %81 = icmp slt i32 %79, %80
  br i1 %81, label %82, label %89

82:                                               ; preds = %78
  %83 = load ptr, ptr %5, align 8, !tbaa !7
  %84 = load i32, ptr %6, align 4, !tbaa !3
  %85 = call i32 @Abc_BddUniqueCreate(ptr noundef %83, i32 noundef %84, i32 noundef 1, i32 noundef 0)
  br label %86

86:                                               ; preds = %82
  %87 = load i32, ptr %6, align 4, !tbaa !3
  %88 = add nsw i32 %87, 1
  store i32 %88, ptr %6, align 4, !tbaa !3
  br label %78, !llvm.loop !26

89:                                               ; preds = %78
  %90 = load ptr, ptr %5, align 8, !tbaa !7
  %91 = getelementptr inbounds nuw %struct.Abc_BddMan_, ptr %90, i32 0, i32 9
  %92 = load i32, ptr %91, align 8, !tbaa !16
  %93 = zext i32 %92 to i64
  %94 = add i64 22, %93
  %95 = add i64 %94, 1
  %96 = load ptr, ptr %5, align 8, !tbaa !7
  %97 = getelementptr inbounds nuw %struct.Abc_BddMan_, ptr %96, i32 0, i32 2
  %98 = load i32, ptr %97, align 8, !tbaa !15
  %99 = sext i32 %98 to i64
  %100 = add i64 %95, %99
  %101 = load ptr, ptr %5, align 8, !tbaa !7
  %102 = getelementptr inbounds nuw %struct.Abc_BddMan_, ptr %101, i32 0, i32 10
  %103 = load i32, ptr %102, align 4, !tbaa !17
  %104 = add i32 %103, 1
  %105 = mul i32 %104, 3
  %106 = zext i32 %105 to i64
  %107 = mul i64 %106, 4
  %108 = udiv i64 %107, 4
  %109 = add i64 %100, %108
  %110 = load ptr, ptr %5, align 8, !tbaa !7
  %111 = getelementptr inbounds nuw %struct.Abc_BddMan_, ptr %110, i32 0, i32 2
  %112 = load i32, ptr %111, align 8, !tbaa !15
  %113 = mul nsw i32 %112, 2
  %114 = sext i32 %113 to i64
  %115 = mul i64 %114, 4
  %116 = udiv i64 %115, 4
  %117 = add i64 %109, %116
  %118 = load ptr, ptr %5, align 8, !tbaa !7
  %119 = getelementptr inbounds nuw %struct.Abc_BddMan_, ptr %118, i32 0, i32 13
  store i64 %117, ptr %119, align 8, !tbaa !28
  %120 = load ptr, ptr %5, align 8, !tbaa !7
  call void @llvm.lifetime.end.p0(i64 4, ptr %6) #9
  call void @llvm.lifetime.end.p0(i64 8, ptr %5) #9
  ret ptr %120
}