; Function Attrs: nofree nounwind uwtable
define noalias noundef ptr @Abc_BddManAlloc(i32 noundef %0, i32 noundef %1) local_unnamed_addr #0 {
  %3 = tail call noalias dereferenceable_or_null(88) ptr @calloc(i64 noundef 1, i64 noundef 88) #12
  store i32 %0, ptr %3, align 8, !tbaa !3
  %4 = getelementptr inbounds nuw i8, ptr %3, i64 8
  store i32 %1, ptr %4, align 8, !tbaa !12
  %5 = icmp ult i32 %1, 2
  %6 = add i32 %1, -1
  %7 = tail call range(i32 0, 33) i32 @llvm.ctlz.i32(i32 %6, i1 true)
  %8 = sub nuw nsw i32 32, %7
  %.09.i = select i1 %5, i32 %1, i32 %8
  %notmask = shl nsw i32 -1, %.09.i
  %9 = xor i32 %notmask, -1
  %10 = getelementptr inbounds nuw i8, ptr %3, i64 64
  store i32 %9, ptr %10, align 8, !tbaa !13
  %11 = getelementptr inbounds nuw i8, ptr %3, i64 68
  store i32 %9, ptr %11, align 4, !tbaa !14
  %12 = sub i32 0, %notmask
  %13 = zext i32 %12 to i64
  %14 = tail call noalias ptr @calloc(i64 noundef %13, i64 noundef 4) #12
  %15 = getelementptr inbounds nuw i8, ptr %3, i64 16
  store ptr %14, ptr %15, align 8, !tbaa !15
  %16 = sext i32 %1 to i64
  %17 = tail call noalias ptr @calloc(i64 noundef %16, i64 noundef 4) #12
  %18 = getelementptr inbounds nuw i8, ptr %3, i64 24
  store ptr %17, ptr %18, align 8, !tbaa !16
  %19 = mul i32 %9, 3
  %20 = add i32 %19, 3
  %21 = zext i32 %20 to i64
  %22 = tail call noalias ptr @calloc(i64 noundef %21, i64 noundef 4) #12
  %23 = getelementptr inbounds nuw i8, ptr %3, i64 32
  store ptr %22, ptr %23, align 8, !tbaa !17
  %24 = shl nsw i32 %1, 1
  %25 = sext i32 %24 to i64
  %26 = tail call noalias ptr @calloc(i64 noundef %25, i64 noundef 4) #12
  %27 = getelementptr inbounds nuw i8, ptr %3, i64 40
  store ptr %26, ptr %27, align 8, !tbaa !18
  %28 = tail call noalias ptr @calloc(i64 noundef %16, i64 noundef 1) #12
  %29 = getelementptr inbounds nuw i8, ptr %3, i64 56
  store ptr %28, ptr %29, align 8, !tbaa !19
  %30 = tail call noalias ptr @calloc(i64 noundef %16, i64 noundef 1) #12
  %31 = getelementptr inbounds nuw i8, ptr %3, i64 48
  store ptr %30, ptr %31, align 8, !tbaa !20
  store i8 -1, ptr %30, align 1, !tbaa !21
  %32 = getelementptr inbounds nuw i8, ptr %3, i64 4
  store i32 1, ptr %32, align 4, !tbaa !22
  %33 = icmp sgt i32 %0, 0
  br i1 %33, label %.lr.ph, label %._crit_edge

.lr.ph:                                           ; preds = %2, %Abc_BddUniqueCreate.exit
  %34 = phi i32 [ %79, %Abc_BddUniqueCreate.exit ], [ 1, %2 ]
  %.035 = phi i32 [ %80, %Abc_BddUniqueCreate.exit ], [ 0, %2 ]
  %35 = mul nuw nsw i32 %.035, 12582917
  %36 = add nuw nsw i32 %35, 4256249
  %37 = and i32 %36, %9
  %38 = zext nneg i32 %37 to i64
  %39 = getelementptr inbounds nuw i32, ptr %14, i64 %38
  %40 = load i32, ptr %39, align 4, !tbaa !23
  %.not41.i.i = icmp eq i32 %40, 0
  br i1 %.not41.i.i, label %._crit_edge.i.i, label %.lr.ph.i.i

.lr.ph.i.i:                                       ; preds = %.lr.ph, %59
  %41 = phi i32 [ %61, %59 ], [ %40, %.lr.ph ]
  %42 = sext i32 %41 to i64
  %43 = getelementptr inbounds i8, ptr %30, i64 %42
  %44 = load i8, ptr %43, align 1, !tbaa !21
  %45 = zext i8 %44 to i32
  %46 = icmp eq i32 %.035, %45
  br i1 %46, label %47, label %59

47:                                               ; preds = %.lr.ph.i.i
  %48 = shl nsw i32 %41, 1
  %49 = sext i32 %48 to i64
  %50 = getelementptr inbounds i32, ptr %26, i64 %49
  %51 = load i32, ptr %50, align 4, !tbaa !23
  %52 = icmp eq i32 %51, 1
  br i1 %52, label %53, label %59

53:                                               ; preds = %47
  %54 = or disjoint i32 %48, 1
  %55 = sext i32 %54 to i64
  %56 = getelementptr inbounds i32, ptr %26, i64 %55
  %57 = load i32, ptr %56, align 4, !tbaa !23
  %58 = icmp eq i32 %57, 0
  br i1 %58, label %Abc_BddUniqueCreate.exit, label %59

59:                                               ; preds = %53, %47, %.lr.ph.i.i
  %60 = getelementptr inbounds i32, ptr %17, i64 %42
  %61 = load i32, ptr %60, align 4, !tbaa !23
  %.not.i.i = icmp eq i32 %61, 0
  br i1 %.not.i.i, label %._crit_edge.i.i.loopexit, label %.lr.ph.i.i, !llvm.loop !24

._crit_edge.i.i.loopexit:                         ; preds = %59
  %62 = getelementptr inbounds i32, ptr %17, i64 %42
  br label %._crit_edge.i.i

._crit_edge.i.i:                                  ; preds = %._crit_edge.i.i.loopexit, %.lr.ph
  %.0.lcssa.i.i = phi ptr [ %39, %.lr.ph ], [ %62, %._crit_edge.i.i.loopexit ]
  %63 = icmp eq i32 %34, %1
  br i1 %63, label %64, label %68

64:                                               ; preds = %._crit_edge.i.i
  %65 = tail call i32 (ptr, ...) @printf(ptr noundef nonnull dereferenceable(1) @.str.8, i32 noundef %1)
  %66 = load ptr, ptr @stdout, align 8, !tbaa !26
  %67 = tail call i32 @fflush(ptr noundef %66)
  br label %68

68:                                               ; preds = %64, %._crit_edge.i.i
  %69 = add nsw i32 %34, 1
  store i32 %69, ptr %32, align 4, !tbaa !22
  store i32 %34, ptr %.0.lcssa.i.i, align 4, !tbaa !23
  %70 = trunc i32 %.035 to i8
  %71 = sext i32 %34 to i64
  %72 = getelementptr inbounds i8, ptr %30, i64 %71
  store i8 %70, ptr %72, align 1, !tbaa !21
  %73 = shl nsw i32 %34, 1
  %74 = sext i32 %73 to i64
  %75 = getelementptr inbounds i32, ptr %26, i64 %74
  store i32 1, ptr %75, align 4, !tbaa !23
  %76 = or disjoint i32 %73, 1
  %77 = sext i32 %76 to i64
  %78 = getelementptr inbounds i32, ptr %26, i64 %77
  store i32 0, ptr %78, align 4, !tbaa !23
  br label %Abc_BddUniqueCreate.exit

Abc_BddUniqueCreate.exit:                         ; preds = %53, %68
  %79 = phi i32 [ %69, %68 ], [ %34, %53 ]
  %80 = add nuw nsw i32 %.035, 1
  %exitcond.not = icmp eq i32 %80, %0
  br i1 %exitcond.not, label %._crit_edge, label %.lr.ph, !llvm.loop !28

._crit_edge:                                      ; preds = %Abc_BddUniqueCreate.exit, %2
  %narrow = sub i32 22, %notmask
  %81 = zext i32 %narrow to i64
  %82 = and i64 %25, 4611686018427387902
  %83 = add nsw i64 %82, %16
  %84 = add nsw i64 %83, %81
  %85 = add nsw i64 %84, %21
  %86 = getelementptr inbounds nuw i8, ptr %3, i64 80
  store i64 %85, ptr %86, align 8, !tbaa !29
  ret ptr %3
}